; Function Attrs: nounwind uwtable
define dso_local void @psql_scan_destroy(ptr noundef captures(none) %0) local_unnamed_addr #0 {
  %2 = getelementptr inbounds nuw i8, ptr %0, i64 16
  %3 = load ptr, ptr %2, align 8
  %.not12.i = icmp eq ptr %3, null
  br i1 %.not12.i, label %._crit_edge.i, label %.lr.ph.i

.lr.ph.i:                                         ; preds = %1, %.lr.ph.i
  tail call void @psqlscan_pop_buffer_stack(ptr noundef nonnull %0)
  %4 = load ptr, ptr %2, align 8
  %.not.i = icmp eq ptr %4, null
  br i1 %.not.i, label %._crit_edge.i, label %.lr.ph.i, !llvm.loop !18

._crit_edge.i:                                    ; preds = %.lr.ph.i, %1
  %5 = getelementptr inbounds nuw i8, ptr %0, i64 24
  %6 = load ptr, ptr %5, align 8
  %.not10.i = icmp eq ptr %6, null
  br i1 %.not10.i, label %23, label %7

7:                                                ; preds = %._crit_edge.i
  %8 = load ptr, ptr %0, align 8
  %9 = getelementptr inbounds nuw i8, ptr %8, i64 40
  %10 = load ptr, ptr %9, align 8
  %.not14.i.i = icmp eq ptr %10, null
  br i1 %.not14.i.i, label %.thread.i.i, label %11

11:                                               ; preds = %7
  %12 = getelementptr inbounds nuw i8, ptr %8, i64 24
  %13 = load i64, ptr %12, align 8
  %14 = getelementptr inbounds nuw ptr, ptr %10, i64 %13
  %15 = load ptr, ptr %14, align 8
  %16 = icmp eq ptr %6, %15
  br i1 %16, label %17, label %.thread.i.i

17:                                               ; preds = %11
  store ptr null, ptr %14, align 8
  br label %.thread.i.i

.thread.i.i:                                      ; preds = %17, %11, %7
  %18 = getelementptr inbounds nuw i8, ptr %6, i64 32
  %19 = load i32, ptr %18, align 8
  %.not15.i.i = icmp eq i32 %19, 0
  br i1 %.not15.i.i, label %psql_yy_delete_buffer.exit.i, label %20

20:                                               ; preds = %.thread.i.i
  %21 = getelementptr inbounds nuw i8, ptr %6, i64 8
  %22 = load ptr, ptr %21, align 8
  tail call void @free(ptr noundef %22) #27
  br label %psql_yy_delete_buffer.exit.i

psql_yy_delete_buffer.exit.i:                     ; preds = %20, %.thread.i.i
  tail call void @free(ptr noundef nonnull %6) #27
  br label %23

23:                                               ; preds = %psql_yy_delete_buffer.exit.i, %._crit_edge.i
  store ptr null, ptr %5, align 8
  %24 = getelementptr inbounds nuw i8, ptr %0, i64 32
  %25 = load ptr, ptr %24, align 8
  %.not11.i = icmp eq ptr %25, null
  br i1 %.not11.i, label %psql_scan_finish.exit, label %26

26:                                               ; preds = %23
  tail call void @free(ptr noundef nonnull %25) #27
  br label %psql_scan_finish.exit

psql_scan_finish.exit:                            ; preds = %23, %26
  store ptr null, ptr %24, align 8
  %27 = getelementptr inbounds nuw i8, ptr %0, i64 72
  store i32 0, ptr %27, align 8
  %28 = getelementptr inbounds nuw i8, ptr %0, i64 80
  store i32 0, ptr %28, align 8
  %29 = getelementptr inbounds nuw i8, ptr %0, i64 84
  store i32 0, ptr %29, align 4
  %30 = getelementptr inbounds nuw i8, ptr %0, i64 88
  %31 = load ptr, ptr %30, align 8
  %.not.i4 = icmp eq ptr %31, null
  br i1 %.not.i4, label %psql_scan_reset.exit, label %32

32:                                               ; preds = %psql_scan_finish.exit
  tail call void @free(ptr noundef nonnull %31) #27
  br label %psql_scan_reset.exit

psql_scan_reset.exit:                             ; preds = %psql_scan_finish.exit, %32
  store ptr null, ptr %30, align 8
  %33 = getelementptr inbounds nuw i8, ptr %0, i64 96
  store i32 0, ptr %33, align 8
  %34 = getelementptr inbounds nuw i8, ptr %0, i64 104
  store i32 0, ptr %34, align 8
  %35 = load ptr, ptr %0, align 8
  %36 = tail call i32 @psql_yylex_destroy(ptr noundef %35)
  tail call void @free(ptr noundef nonnull %0) #27
  ret void
}